; Function Attrs: nounwind uwtable
define dso_local range(i32 0, 2) i32 @WPACKET_init_null(ptr noundef captures(none) initializes((0, 48)) %0, i64 noundef %1) local_unnamed_addr #0 {
wpacket_intern_init_len.exit:
  %2 = add i64 %1, -8
  %or.cond.i = icmp ult i64 %2, -7
  %3 = shl nuw nsw i64 %1, 3
  %notmask.i = shl nsw i64 -1, %3
  %4 = xor i64 %notmask.i, -1
  %5 = add nuw nsw i64 %1, %4
  %.0.i = select i1 %or.cond.i, i64 -1, i64 %5
  %6 = getelementptr inbounds nuw i8, ptr %0, i64 32
  tail call void @llvm.memset.p0.i64(ptr noundef nonnull align 8 dereferenceable(16) %0, i8 0, i64 16, i1 false)
  store i64 %.0.i, ptr %6, align 8, !tbaa !15
  %7 = getelementptr inbounds nuw i8, ptr %0, i64 48
  %8 = load i8, ptr %7, align 8
  %9 = and i8 %8, -2
  store i8 %9, ptr %7, align 8
  %10 = getelementptr inbounds nuw i8, ptr %0, i64 16
  tail call void @llvm.memset.p0.i64(ptr noundef nonnull align 8 dereferenceable(16) %10, i8 0, i64 16, i1 false)
  %11 = tail call noalias ptr @CRYPTO_zalloc(i64 noundef 40, ptr noundef nonnull @.str, i32 noundef 110) #12
  %12 = getelementptr inbounds nuw i8, ptr %0, i64 40
  store ptr %11, ptr %12, align 8, !tbaa !4
  %13 = icmp ne ptr %11, null
  %spec.select = zext i1 %13 to i32
  ret i32 %spec.select
}